target datalayout = "e-m:e-p270:32:32-p271:32:32-p272:64:64-i64:64-i128:128-f80:128-n8:16:32:64-S128"
target triple = "x86_64-pc-linux-gnu"

%class.Node = type <{ ptr, ptr, ptr, i32, i32, i32, i32, i32, i32, i32, [4 x i8] }>
%class.Node.base = type <{ ptr, ptr, ptr, i32, i32, i32, i32, i32, i32, i32 }>
%class.LoopNode = type { %class.RegionNode.base, i32, i8, float }
%class.RegionNode.base = type { %class.Node.base, i8, i32 }
%class.AssertionPredicatesWithHalt = type { ptr }

; Function Attrs: mustprogress nounwind uwtable
define linkonce_odr hidden noundef ptr @_ZNK27AssertionPredicatesWithHalt5entryEv(ptr noundef nonnull align 8 dereferenceable(8) %0) #1 comdat align 2 {
  %2 = alloca ptr, align 8
  store ptr %0, ptr %2, align 8
  %3 = load ptr, ptr %2, align 8
  %4 = getelementptr inbounds %class.AssertionPredicatesWithHalt, ptr %3, i32 0, i32 0
  %5 = load ptr, ptr %4, align 8
  ret ptr %5
}

; Function Attrs: mustprogress nounwind uwtable
define linkonce_odr hidden void @_ZN27AssertionPredicatesWithHaltC2EP4Node(ptr noundef nonnull align 8 dereferenceable(8) %0, ptr noundef %1) unnamed_addr #1 comdat align 2 {
  %3 = alloca ptr, align 8
  %4 = alloca ptr, align 8
  store ptr %0, ptr %3, align 8
  store ptr %1, ptr %4, align 8
  %5 = load ptr, ptr %3, align 8
  %6 = getelementptr inbounds %class.AssertionPredicatesWithHalt, ptr %5, i32 0, i32 0
  %7 = load ptr, ptr %4, align 8
  %8 = call noundef ptr @_ZN27AssertionPredicatesWithHalt10find_entryEP4Node(ptr noundef %7)
  store ptr %8, ptr %6, align 8
  ret void
}

; Function Attrs: mustprogress nounwind uwtable
define linkonce_odr hidden noundef i32 @_ZNK4Node3reqEv(ptr noundef nonnull align 8 dereferenceable(52) %0) #1 comdat align 2 {
  %2 = alloca ptr, align 8
  store ptr %0, ptr %2, align 8
  %3 = load ptr, ptr %2, align 8
  %4 = getelementptr inbounds %class.Node, ptr %3, i32 0, i32 3
  %5 = load i32, ptr %4, align 8
  ret i32 %5
}

; Function Attrs: mustprogress nounwind uwtable
define linkonce_odr hidden noundef zeroext i1 @_ZNK4Node6is_CmpEv(ptr noundef nonnull align 8 dereferenceable(52) %0) #1 comdat align 2 {
  %2 = alloca ptr, align 8
  store ptr %0, ptr %2, align 8
  %3 = load ptr, ptr %2, align 8
  %4 = getelementptr inbounds %class.Node, ptr %3, i32 0, i32 8
  %5 = load i32, ptr %4, align 4
  %6 = and i32 %5, 255
  %7 = icmp eq i32 %6, 192
  ret i1 %7
}

; Function Attrs: mustprogress nounwind uwtable
define linkonce_odr hidden noundef zeroext i1 @_ZNK4Node7is_BoolEv(ptr noundef nonnull align 8 dereferenceable(52) %0) #1 comdat align 2 {
  %2 = alloca ptr, align 8
  store ptr %0, ptr %2, align 8
  %3 = load ptr, ptr %2, align 8
  %4 = getelementptr inbounds %class.Node, ptr %3, i32 0, i32 8
  %5 = load i32, ptr %4, align 4
  %6 = and i32 %5, 511
  %7 = icmp eq i32 %6, 256
  ret i1 %7
}

; Function Attrs: mustprogress nounwind uwtable
define linkonce_odr hidden noundef ptr @_ZNK4Node2inEj(ptr noundef nonnull align 8 dereferenceable(52) %0, i32 noundef %1) #1 comdat align 2 {
  %3 = alloca ptr, align 8
  %4 = alloca i32, align 4
  store ptr %0, ptr %3, align 8
  store i32 %1, ptr %4, align 4
  %5 = load ptr, ptr %3, align 8
  %6 = getelementptr inbounds %class.Node, ptr %5, i32 0, i32 1
  %7 = load ptr, ptr %6, align 8
  %8 = load i32, ptr %4, align 4
  %9 = zext i32 %8 to i64
  %10 = getelementptr inbounds ptr, ptr %7, i64 %9
  %11 = load ptr, ptr %10, align 8
  ret ptr %11
}

; Function Attrs: mustprogress nounwind uwtable
define linkonce_odr hidden noundef zeroext i1 @_ZNK4Node10is_IfFalseEv(ptr noundef nonnull align 8 dereferenceable(52) %0) #1 comdat align 2 {
  %2 = alloca ptr, align 8
  store ptr %0, ptr %2, align 8
  %3 = load ptr, ptr %2, align 8
  %4 = getelementptr inbounds %class.Node, ptr %3, i32 0, i32 8
  %5 = load i32, ptr %4, align 4
  %6 = and i32 %5, 511
  %7 = icmp eq i32 %6, 328
  ret i1 %7
}

; Function Attrs: mustprogress nounwind uwtable
define linkonce_odr hidden noundef zeroext i1 @_ZNK4Node9is_IfTrueEv(ptr noundef nonnull align 8 dereferenceable(52) %0) #1 comdat align 2 {
  %2 = alloca ptr, align 8
  store ptr %0, ptr %2, align 8
  %3 = load ptr, ptr %2, align 8
  %4 = getelementptr inbounds %class.Node, ptr %3, i32 0, i32 8
  %5 = load i32, ptr %4, align 4
  %6 = and i32 %5, 255
  %7 = icmp eq i32 %6, 200
  ret i1 %7
}

; Function Attrs: mustprogress nounwind uwtable
define hidden noundef ptr @_ZN15CountedLoopNode35skip_assertion_predicates_with_haltEv(ptr noundef nonnull align 8 dereferenceable(92) %0) #1 align 2 {
  %2 = alloca ptr, align 8
  %3 = alloca ptr, align 8
  %4 = alloca ptr, align 8
  %5 = alloca %class.AssertionPredicatesWithHalt, align 8
  store ptr %0, ptr %3, align 8
  %6 = load ptr, ptr %3, align 8
  %7 = call noundef ptr @_ZNK4Node2inEj(ptr noundef nonnull align 8 dereferenceable(52) %6, i32 noundef 1)
  store ptr %7, ptr %4, align 8
  %8 = call noundef zeroext i1 @_ZNK15CountedLoopNode12is_main_loopEv(ptr noundef nonnull align 8 dereferenceable(92) %6)
  br i1 %8, label %9, label %15

9:                                                ; preds = %1
  %10 = load ptr, ptr %6, align 8
  %11 = getelementptr inbounds ptr, ptr %10, i64 24
  %12 = load ptr, ptr %11, align 8
  %13 = call noundef ptr %12(ptr noundef nonnull align 8 dereferenceable(92) %6, i32 noundef 1)
  %14 = call noundef ptr @_ZNK4Node2inEj(ptr noundef nonnull align 8 dereferenceable(52) %13, i32 noundef 1)
  store ptr %14, ptr %4, align 8
  br label %15

15:                                               ; preds = %9, %1
  %16 = call noundef zeroext i1 @_ZNK15CountedLoopNode12is_main_loopEv(ptr noundef nonnull align 8 dereferenceable(92) %6)
  br i1 %16, label %19, label %17

17:                                               ; preds = %15
  %18 = call noundef zeroext i1 @_ZNK15CountedLoopNode12is_post_loopEv(ptr noundef nonnull align 8 dereferenceable(92) %6)
  br i1 %18, label %19, label %22

19:                                               ; preds = %17, %15
  %20 = load ptr, ptr %4, align 8
  call void @_ZN27AssertionPredicatesWithHaltC2EP4Node(ptr noundef nonnull align 8 dereferenceable(8) %5, ptr noundef %20)
  %21 = call noundef ptr @_ZNK27AssertionPredicatesWithHalt5entryEv(ptr noundef nonnull align 8 dereferenceable(8) %5)
  store ptr %21, ptr %2, align 8
  br label %24

22:                                               ; preds = %17
  %23 = load ptr, ptr %4, align 8
  store ptr %23, ptr %2, align 8
  br label %24

24:                                               ; preds = %22, %19
  %25 = load ptr, ptr %2, align 8
  ret ptr %25
}

; Function Attrs: mustprogress nounwind uwtable
define linkonce_odr hidden noundef zeroext i1 @_ZNK15CountedLoopNode12is_post_loopEv(ptr noundef nonnull align 8 dereferenceable(92) %0) #1 comdat align 2 {
  %2 = alloca ptr, align 8
  store ptr %0, ptr %2, align 8
  %3 = load ptr, ptr %2, align 8
  %4 = getelementptr inbounds %class.LoopNode, ptr %3, i32 0, i32 1
  %5 = load i32, ptr %4, align 4
  %6 = and i32 %5, 3
  %7 = icmp eq i32 %6, 3
  ret i1 %7
}

; Function Attrs: mustprogress nounwind uwtable
define linkonce_odr hidden noundef zeroext i1 @_ZNK15CountedLoopNode12is_main_loopEv(ptr noundef nonnull align 8 dereferenceable(92) %0) #1 comdat align 2 {
  %2 = alloca ptr, align 8
  store ptr %0, ptr %2, align 8
  %3 = load ptr, ptr %2, align 8
  %4 = getelementptr inbounds %class.LoopNode, ptr %3, i32 0, i32 1
  %5 = load i32, ptr %4, align 4
  %6 = and i32 %5, 3
  %7 = icmp eq i32 %6, 2
  ret i1 %7
}

; Function Attrs: mustprogress nounwind uwtable
define hidden noundef ptr @_ZN15CountedLoopNode23is_canonical_loop_entryEv(ptr noundef nonnull align 8 dereferenceable(92) %0) #1 align 2 {
  %2 = alloca ptr, align 8
  %3 = alloca ptr, align 8
  %4 = alloca ptr, align 8
  %5 = alloca ptr, align 8
  %6 = alloca ptr, align 8
  %7 = alloca ptr, align 8
  %8 = alloca i32, align 4
  %9 = alloca i8, align 1
  store ptr %0, ptr %3, align 8
  %10 = load ptr, ptr %3, align 8
  %11 = call noundef zeroext i1 @_ZNK15CountedLoopNode12is_main_loopEv(ptr noundef nonnull align 8 dereferenceable(92) %10)
  br i1 %11, label %15, label %12

12:                                               ; preds = %1
  %13 = call noundef zeroext i1 @_ZNK15CountedLoopNode12is_post_loopEv(ptr noundef nonnull align 8 dereferenceable(92) %10)
  br i1 %13, label %15, label %14

14:                                               ; preds = %12
  store ptr null, ptr %2, align 8
  br label %89

15:                                               ; preds = %12, %1
  %16 = call noundef ptr @_ZN15CountedLoopNode35skip_assertion_predicates_with_haltEv(ptr noundef nonnull align 8 dereferenceable(92) %10)
  store ptr %16, ptr %4, align 8
  %17 = load ptr, ptr %4, align 8
  %18 = icmp eq ptr %17, null
  br i1 %18, label %25, label %19

19:                                               ; preds = %15
  %20 = load ptr, ptr %4, align 8
  %21 = call noundef zeroext i1 @_ZNK4Node9is_IfTrueEv(ptr noundef nonnull align 8 dereferenceable(52) %20)
  br i1 %21, label %26, label %22

22:                                               ; preds = %19
  %23 = load ptr, ptr %4, align 8
  %24 = call noundef zeroext i1 @_ZNK4Node10is_IfFalseEv(ptr noundef nonnull align 8 dereferenceable(52) %23)
  br i1 %24, label %26, label %25

25:                                               ; preds = %22, %15
  store ptr null, ptr %2, align 8
  br label %89

26:                                               ; preds = %22, %19
  %27 = load ptr, ptr %4, align 8
  %28 = call noundef ptr @_ZNK4Node2inEj(ptr noundef nonnull align 8 dereferenceable(52) %27, i32 noundef 0)
  store ptr %28, ptr %5, align 8
  %29 = load ptr, ptr %5, align 8
  %30 = icmp eq ptr %29, null
  br i1 %30, label %38, label %31

31:                                               ; preds = %26
  %32 = load ptr, ptr %5, align 8
  %33 = load ptr, ptr %32, align 8
  %34 = getelementptr inbounds ptr, ptr %33, i64 0
  %35 = load ptr, ptr %34, align 8
  %36 = call noundef i32 %35(ptr noundef nonnull align 8 dereferenceable(52) %32)
  %37 = icmp ne i32 %36, 177
  br i1 %37, label %38, label %39

38:                                               ; preds = %31, %26
  store ptr null, ptr %2, align 8
  br label %89

39:                                               ; preds = %31
  %40 = load ptr, ptr %5, align 8
  %41 = call noundef ptr @_ZNK4Node2inEj(ptr noundef nonnull align 8 dereferenceable(52) %40, i32 noundef 1)
  store ptr %41, ptr %6, align 8
  %42 = load ptr, ptr %6, align 8
  %43 = icmp eq ptr %42, null
  br i1 %43, label %47, label %44

44:                                               ; preds = %39
  %45 = load ptr, ptr %6, align 8
  %46 = call noundef zeroext i1 @_ZNK4Node7is_BoolEv(ptr noundef nonnull align 8 dereferenceable(52) %45)
  br i1 %46, label %48, label %47

47:                                               ; preds = %44, %39
  store ptr null, ptr %2, align 8
  br label %89

48:                                               ; preds = %44
  %49 = load ptr, ptr %6, align 8
  %50 = call noundef ptr @_ZNK4Node2inEj(ptr noundef nonnull align 8 dereferenceable(52) %49, i32 noundef 1)
  store ptr %50, ptr %7, align 8
  %51 = load ptr, ptr %7, align 8
  %52 = icmp eq ptr %51, null
  br i1 %52, label %56, label %53

53:                                               ; preds = %48
  %54 = load ptr, ptr %7, align 8
  %55 = call noundef zeroext i1 @_ZNK4Node6is_CmpEv(ptr noundef nonnull align 8 dereferenceable(52) %54)
  br i1 %55, label %57, label %56

56:                                               ; preds = %53, %48
  store ptr null, ptr %2, align 8
  br label %89

57:                                               ; preds = %53
  %58 = call noundef zeroext i1 @_ZNK15CountedLoopNode12is_main_loopEv(ptr noundef nonnull align 8 dereferenceable(92) %10)
  %59 = select i1 %58, i32 2, i32 1
  store i32 %59, ptr %8, align 4
  %60 = load i32, ptr %8, align 4
  %61 = load ptr, ptr %7, align 8
  %62 = call noundef i32 @_ZNK4Node3reqEv(ptr noundef nonnull align 8 dereferenceable(52) %61)
  %63 = icmp uge i32 %60, %62
  br i1 %63, label %69, label %64

64:                                               ; preds = %57
  %65 = load ptr, ptr %7, align 8
  %66 = load i32, ptr %8, align 4
  %67 = call noundef ptr @_ZNK4Node2inEj(ptr noundef nonnull align 8 dereferenceable(52) %65, i32 noundef %66)
  %68 = icmp eq ptr %67, null
  br i1 %68, label %69, label %70

69:                                               ; preds = %64, %57
  store ptr null, ptr %2, align 8
  br label %89

70:                                               ; preds = %64
  %71 = load ptr, ptr %7, align 8
  %72 = load i32, ptr %8, align 4
  %73 = call noundef ptr @_ZNK4Node2inEj(ptr noundef nonnull align 8 dereferenceable(52) %71, i32 noundef %72)
  %74 = load ptr, ptr %73, align 8
  %75 = getelementptr inbounds ptr, ptr %74, i64 0
  %76 = load ptr, ptr %75, align 8
  %77 = call noundef i32 %76(ptr noundef nonnull align 8 dereferenceable(52) %73)
  %78 = icmp eq i32 %77, 258
  %79 = zext i1 %78 to i8
  store i8 %79, ptr %9, align 1
  %80 = load i8, ptr %9, align 1
  %81 = trunc i8 %80 to i1
  br i1 %81, label %82, label %86

82:                                               ; preds = %70
  %83 = load ptr, ptr %7, align 8
  %84 = load i32, ptr %8, align 4
  %85 = call noundef ptr @_ZNK4Node2inEj(ptr noundef nonnull align 8 dereferenceable(52) %83, i32 noundef %84)
  br label %87

86:                                               ; preds = %70
  br label %87

87:                                               ; preds = %86, %82
  %88 = phi ptr [ %85, %82 ], [ null, %86 ]
  store ptr %88, ptr %2, align 8
  br label %89

89:                                               ; preds = %87, %69, %56, %47, %38, %25, %14
  %90 = load ptr, ptr %2, align 8
  ret ptr %90
}