; Function Attrs: mustprogress nounwind uwtable
define hidden noundef ptr @_ZN15CountedLoopNode23is_canonical_loop_entryEv(ptr noundef nonnull align 8 dereferenceable(92) %0) local_unnamed_addr #0 align 2 {
  %2 = getelementptr inbounds i8, ptr %0, i64 60
  %3 = load i32, ptr %2, align 4
  %4 = and i32 %3, 3
  switch i32 %4, label %77 [
    i32 2, label %5
    i32 3, label %10
  ]

5:                                                ; preds = %1
  %6 = load ptr, ptr %0, align 8
  %7 = getelementptr inbounds i8, ptr %6, i64 192
  %8 = load ptr, ptr %7, align 8
  %9 = tail call noundef ptr %8(ptr noundef nonnull align 8 dereferenceable(92) %0, i32 noundef 1) #15
  %.pre.i = load i32, ptr %2, align 4
  br label %10

10:                                               ; preds = %1, %5
  %11 = phi i32 [ %.pre.i, %5 ], [ %3, %1 ]
  %.pn5.i = phi ptr [ %9, %5 ], [ %0, %1 ]
  %.pn.in.i = getelementptr inbounds i8, ptr %.pn5.i, i64 8
  %.pn.i = load ptr, ptr %.pn.in.i, align 8
  %.0.in.i = getelementptr inbounds i8, ptr %.pn.i, i64 8
  %.0.i = load ptr, ptr %.0.in.i, align 8
  %12 = and i32 %11, 2
  %switch.not.i = icmp eq i32 %12, 0
  br i1 %switch.not.i, label %_ZN15CountedLoopNode35skip_assertion_predicates_with_haltEv.exit, label %13

13:                                               ; preds = %10
  %14 = tail call noundef ptr @_ZN27AssertionPredicatesWithHalt10find_entryEP4Node(ptr noundef %.0.i) #15
  br label %_ZN15CountedLoopNode35skip_assertion_predicates_with_haltEv.exit

_ZN15CountedLoopNode35skip_assertion_predicates_with_haltEv.exit: ; preds = %10, %13
  %.04.i = phi ptr [ %14, %13 ], [ %.0.i, %10 ]
  %15 = icmp eq ptr %.04.i, null
  br i1 %15, label %77, label %16

16:                                               ; preds = %_ZN15CountedLoopNode35skip_assertion_predicates_with_haltEv.exit
  %17 = getelementptr inbounds i8, ptr %.04.i, i64 44
  %18 = load i32, ptr %17, align 4
  %19 = and i32 %18, 255
  %20 = icmp eq i32 %19, 200
  %21 = and i32 %18, 511
  %22 = icmp eq i32 %21, 328
  %or.cond = or i1 %20, %22
  br i1 %or.cond, label %23, label %77

23:                                               ; preds = %16
  %24 = getelementptr inbounds i8, ptr %.04.i, i64 8
  %25 = load ptr, ptr %24, align 8
  %26 = load ptr, ptr %25, align 8
  %27 = icmp eq ptr %26, null
  br i1 %27, label %77, label %28

28:                                               ; preds = %23
  %29 = load ptr, ptr %26, align 8
  %30 = load ptr, ptr %29, align 8
  %31 = tail call noundef i32 %30(ptr noundef nonnull align 8 dereferenceable(52) %26) #15
  %.not = icmp eq i32 %31, 177
  br i1 %.not, label %32, label %77

32:                                               ; preds = %28
  %33 = getelementptr inbounds i8, ptr %26, i64 8
  %34 = load ptr, ptr %33, align 8
  %35 = getelementptr inbounds i8, ptr %34, i64 8
  %36 = load ptr, ptr %35, align 8
  %37 = icmp eq ptr %36, null
  br i1 %37, label %77, label %38

38:                                               ; preds = %32
  %39 = getelementptr inbounds i8, ptr %36, i64 44
  %40 = load i32, ptr %39, align 4
  %41 = and i32 %40, 511
  %42 = icmp eq i32 %41, 256
  br i1 %42, label %43, label %77

43:                                               ; preds = %38
  %44 = getelementptr inbounds i8, ptr %36, i64 8
  %45 = load ptr, ptr %44, align 8
  %46 = getelementptr inbounds i8, ptr %45, i64 8
  %47 = load ptr, ptr %46, align 8
  %48 = icmp eq ptr %47, null
  br i1 %48, label %77, label %49

49:                                               ; preds = %43
  %50 = getelementptr inbounds i8, ptr %47, i64 44
  %51 = load i32, ptr %50, align 4
  %52 = and i32 %51, 255
  %53 = icmp eq i32 %52, 192
  br i1 %53, label %54, label %77

54:                                               ; preds = %49
  %55 = load i32, ptr %2, align 4
  %56 = and i32 %55, 3
  %57 = icmp eq i32 %56, 2
  %58 = select i1 %57, i32 2, i32 1
  %59 = getelementptr inbounds i8, ptr %47, i64 24
  %60 = load i32, ptr %59, align 8
  %.not27 = icmp ult i32 %58, %60
  br i1 %.not27, label %61, label %77

61:                                               ; preds = %54
  %62 = getelementptr inbounds i8, ptr %47, i64 8
  %63 = load ptr, ptr %62, align 8
  %64 = zext nneg i32 %58 to i64
  %65 = getelementptr inbounds ptr, ptr %63, i64 %64
  %66 = load ptr, ptr %65, align 8
  %67 = icmp eq ptr %66, null
  br i1 %67, label %77, label %68

68:                                               ; preds = %61
  %69 = load ptr, ptr %66, align 8
  %70 = load ptr, ptr %69, align 8
  %71 = tail call noundef i32 %70(ptr noundef nonnull align 8 dereferenceable(52) %66) #15
  %72 = icmp eq i32 %71, 258
  br i1 %72, label %73, label %77

73:                                               ; preds = %68
  %74 = load ptr, ptr %62, align 8
  %75 = getelementptr inbounds ptr, ptr %74, i64 %64
  %76 = load ptr, ptr %75, align 8
  br label %77

77:                                               ; preds = %16, %1, %73, %68, %54, %61, %43, %49, %32, %38, %23, %28, %_ZN15CountedLoopNode35skip_assertion_predicates_with_haltEv.exit
  %.0 = phi ptr [ null, %_ZN15CountedLoopNode35skip_assertion_predicates_with_haltEv.exit ], [ null, %28 ], [ null, %23 ], [ null, %38 ], [ null, %32 ], [ null, %49 ], [ null, %43 ], [ null, %61 ], [ null, %54 ], [ %76, %73 ], [ null, %68 ], [ null, %1 ], [ null, %16 ]
  ret ptr %.0
}